target datalayout = "e-m:e-p270:32:32-p271:32:32-p272:64:64-i64:64-i128:128-f80:128-n8:16:32:64-S128"
target triple = "x86_64-pc-linux-gnu"

%struct.OnigEncodingTypeST = type { ptr, ptr, i32, i32, ptr, ptr, ptr, ptr, ptr, ptr, ptr, ptr, ptr, ptr, ptr, ptr, ptr, i32, i32 }

; Function Attrs: nounwind sspstrong uwtable
define internal i32 @scan_unsigned_hexadecimal_number(ptr noundef %0, ptr noundef %1, i32 noundef %2, i32 noundef %3, ptr noundef %4) #0 {
  %6 = alloca i32, align 4
  %7 = alloca ptr, align 8
  %8 = alloca ptr, align 8
  %9 = alloca i32, align 4
  %10 = alloca i32, align 4
  %11 = alloca ptr, align 8
  %12 = alloca i32, align 4
  %13 = alloca i32, align 4
  %14 = alloca i32, align 4
  %15 = alloca i32, align 4
  %16 = alloca ptr, align 8
  %17 = alloca ptr, align 8
  %18 = alloca i32, align 4
  store ptr %0, ptr %7, align 8, !tbaa !77
  store ptr %1, ptr %8, align 8, !tbaa !7
  store i32 %2, ptr %9, align 4, !tbaa !13
  store i32 %3, ptr %10, align 4, !tbaa !13
  store ptr %4, ptr %11, align 8, !tbaa !79
  call void @llvm.lifetime.start.p0(i64 4, ptr %12) #13
  call void @llvm.lifetime.start.p0(i64 4, ptr %13) #13
  call void @llvm.lifetime.start.p0(i64 4, ptr %14) #13
  call void @llvm.lifetime.start.p0(i64 4, ptr %15) #13
  call void @llvm.lifetime.start.p0(i64 8, ptr %16) #13
  %19 = load ptr, ptr %7, align 8, !tbaa !77
  %20 = load ptr, ptr %19, align 8, !tbaa !7
  store ptr %20, ptr %16, align 8, !tbaa !7
  call void @llvm.lifetime.start.p0(i64 8, ptr %17) #13
  store ptr null, ptr %17, align 8, !tbaa !7
  %21 = load i32, ptr %10, align 4, !tbaa !13
  %22 = load i32, ptr %9, align 4, !tbaa !13
  %23 = sub i32 %21, %22
  store i32 %23, ptr %15, align 4, !tbaa !13
  store i32 0, ptr %13, align 4, !tbaa !13
  br label %24

24:                                               ; preds = %171, %5
  %25 = load ptr, ptr %16, align 8, !tbaa !7
  %26 = load ptr, ptr %8, align 8, !tbaa !7
  %27 = icmp ult ptr %25, %26
  br i1 %27, label %28, label %29

28:                                               ; preds = %24
  br i1 false, label %34, label %30

29:                                               ; preds = %24
  br i1 true, label %34, label %30

30:                                               ; preds = %29, %28
  %31 = load i32, ptr %10, align 4, !tbaa !13
  %32 = add i32 %31, -1
  store i32 %32, ptr %10, align 4, !tbaa !13
  %33 = icmp ne i32 %31, 0
  br label %34

34:                                               ; preds = %30, %29, %28
  %35 = phi i1 [ false, %29 ], [ false, %28 ], [ %33, %30 ]
  br i1 %35, label %36, label %172

36:                                               ; preds = %34
  br label %37

37:                                               ; preds = %36
  %38 = load ptr, ptr %11, align 8, !tbaa !79
  %39 = getelementptr inbounds nuw %struct.OnigEncodingTypeST, ptr %38, i32 0, i32 2
  %40 = load i32, ptr %39, align 8, !tbaa !80
  %41 = icmp eq i32 %40, 1
  br i1 %41, label %42, label %46

42:                                               ; preds = %37
  %43 = load ptr, ptr %16, align 8, !tbaa !7
  %44 = load i8, ptr %43, align 1, !tbaa !17
  %45 = zext i8 %44 to i32
  br label %54

46:                                               ; preds = %37
  %47 = load ptr, ptr %11, align 8, !tbaa !79
  %48 = getelementptr inbounds nuw %struct.OnigEncodingTypeST, ptr %47, i32 0, i32 5
  %49 = load ptr, ptr %48, align 8, !tbaa !82
  %50 = load ptr, ptr %16, align 8, !tbaa !7
  %51 = load ptr, ptr %8, align 8, !tbaa !7
  %52 = load ptr, ptr %11, align 8, !tbaa !79
  %53 = call i32 %49(ptr noundef %50, ptr noundef %51, ptr noundef %52)
  br label %54

54:                                               ; preds = %46, %42
  %55 = phi i32 [ %45, %42 ], [ %53, %46 ]
  store i32 %55, ptr %12, align 4, !tbaa !13
  %56 = load ptr, ptr %16, align 8, !tbaa !7
  store ptr %56, ptr %17, align 8, !tbaa !7
  %57 = load ptr, ptr %11, align 8, !tbaa !79
  %58 = getelementptr inbounds nuw %struct.OnigEncodingTypeST, ptr %57, i32 0, i32 2
  %59 = load i32, ptr %58, align 8, !tbaa !80
  %60 = load ptr, ptr %11, align 8, !tbaa !79
  %61 = getelementptr inbounds nuw %struct.OnigEncodingTypeST, ptr %60, i32 0, i32 3
  %62 = load i32, ptr %61, align 4, !tbaa !83
  %63 = icmp eq i32 %59, %62
  br i1 %63, label %64, label %75

64:                                               ; preds = %54
  %65 = load ptr, ptr %16, align 8, !tbaa !7
  %66 = load ptr, ptr %8, align 8, !tbaa !7
  %67 = icmp ult ptr %65, %66
  br i1 %67, label %68, label %72

68:                                               ; preds = %64
  %69 = load ptr, ptr %11, align 8, !tbaa !79
  %70 = getelementptr inbounds nuw %struct.OnigEncodingTypeST, ptr %69, i32 0, i32 3
  %71 = load i32, ptr %70, align 4, !tbaa !83
  br label %73

72:                                               ; preds = %64
  br label %73

73:                                               ; preds = %72, %68
  %74 = phi i32 [ %71, %68 ], [ 0, %72 ]
  br label %80

75:                                               ; preds = %54
  %76 = load ptr, ptr %16, align 8, !tbaa !7
  %77 = load ptr, ptr %8, align 8, !tbaa !7
  %78 = load ptr, ptr %11, align 8, !tbaa !79
  %79 = call i32 @onigenc_mbclen(ptr noundef %76, ptr noundef %77, ptr noundef %78)
  br label %80

80:                                               ; preds = %75, %73
  %81 = phi i32 [ %74, %73 ], [ %79, %75 ]
  %82 = load ptr, ptr %16, align 8, !tbaa !7
  %83 = sext i32 %81 to i64
  %84 = getelementptr i8, ptr %82, i64 %83
  store ptr %84, ptr %16, align 8, !tbaa !7
  br label %85

85:                                               ; preds = %80
  br label %86

86:                                               ; preds = %85
  %87 = load ptr, ptr %11, align 8, !tbaa !79
  %88 = getelementptr inbounds nuw %struct.OnigEncodingTypeST, ptr %87, i32 0, i32 12
  %89 = load ptr, ptr %88, align 8, !tbaa !84
  %90 = load i32, ptr %12, align 4, !tbaa !13
  %91 = load ptr, ptr %11, align 8, !tbaa !79
  %92 = call i32 %89(i32 noundef %90, i32 noundef 11, ptr noundef %91)
  %93 = icmp ne i32 %92, 0
  br i1 %93, label %94, label %167

94:                                               ; preds = %86
  %95 = load ptr, ptr %11, align 8, !tbaa !79
  %96 = getelementptr inbounds nuw %struct.OnigEncodingTypeST, ptr %95, i32 0, i32 12
  %97 = load ptr, ptr %96, align 8, !tbaa !84
  %98 = load i32, ptr %12, align 4, !tbaa !13
  %99 = load ptr, ptr %11, align 8, !tbaa !79
  %100 = call i32 %97(i32 noundef %98, i32 noundef 4, ptr noundef %99)
  %101 = icmp ne i32 %100, 0
  br i1 %101, label %102, label %105

102:                                              ; preds = %94
  %103 = load i32, ptr %12, align 4, !tbaa !13
  %104 = sub i32 %103, 48
  br label %123

105:                                              ; preds = %94
  %106 = load ptr, ptr %11, align 8, !tbaa !79
  %107 = getelementptr inbounds nuw %struct.OnigEncodingTypeST, ptr %106, i32 0, i32 12
  %108 = load ptr, ptr %107, align 8, !tbaa !84
  %109 = load i32, ptr %12, align 4, !tbaa !13
  %110 = load ptr, ptr %11, align 8, !tbaa !79
  %111 = call i32 %108(i32 noundef %109, i32 noundef 10, ptr noundef %110)
  %112 = icmp ne i32 %111, 0
  br i1 %112, label %113, label %117

113:                                              ; preds = %105
  %114 = load i32, ptr %12, align 4, !tbaa !13
  %115 = sub i32 %114, 65
  %116 = add i32 %115, 10
  br label %121

117:                                              ; preds = %105
  %118 = load i32, ptr %12, align 4, !tbaa !13
  %119 = sub i32 %118, 97
  %120 = add i32 %119, 10
  br label %121

121:                                              ; preds = %117, %113
  %122 = phi i32 [ %116, %113 ], [ %120, %117 ]
  br label %123

123:                                              ; preds = %121, %102
  %124 = phi i32 [ %104, %102 ], [ %122, %121 ]
  store i32 %124, ptr %14, align 4, !tbaa !13
  %125 = load i32, ptr %14, align 4, !tbaa !13
  %126 = zext i32 %125 to i64
  %127 = sub i64 2147483647, %126
  %128 = udiv i64 %127, 16
  %129 = load i32, ptr %13, align 4, !tbaa !13
  %130 = zext i32 %129 to i64
  %131 = icmp ult i64 %128, %130
  br i1 %131, label %132, label %133

132:                                              ; preds = %123
  store i32 -1, ptr %6, align 4
  store i32 1, ptr %18, align 4
  br label %181

133:                                              ; preds = %123
  %134 = load i32, ptr %13, align 4, !tbaa !13
  %135 = shl i32 %134, 4
  %136 = load ptr, ptr %11, align 8, !tbaa !79
  %137 = getelementptr inbounds nuw %struct.OnigEncodingTypeST, ptr %136, i32 0, i32 12
  %138 = load ptr, ptr %137, align 8, !tbaa !84
  %139 = load i32, ptr %12, align 4, !tbaa !13
  %140 = load ptr, ptr %11, align 8, !tbaa !79
  %141 = call i32 %138(i32 noundef %139, i32 noundef 4, ptr noundef %140)
  %142 = icmp ne i32 %141, 0
  br i1 %142, label %143, label %146

143:                                              ; preds = %133
  %144 = load i32, ptr %12, align 4, !tbaa !13
  %145 = sub i32 %144, 48
  br label %164

146:                                              ; preds = %133
  %147 = load ptr, ptr %11, align 8, !tbaa !79
  %148 = getelementptr inbounds nuw %struct.OnigEncodingTypeST, ptr %147, i32 0, i32 12
  %149 = load ptr, ptr %148, align 8, !tbaa !84
  %150 = load i32, ptr %12, align 4, !tbaa !13
  %151 = load ptr, ptr %11, align 8, !tbaa !79
  %152 = call i32 %149(i32 noundef %150, i32 noundef 10, ptr noundef %151)
  %153 = icmp ne i32 %152, 0
  br i1 %153, label %154, label %158

154:                                              ; preds = %146
  %155 = load i32, ptr %12, align 4, !tbaa !13
  %156 = sub i32 %155, 65
  %157 = add i32 %156, 10
  br label %162

158:                                              ; preds = %146
  %159 = load i32, ptr %12, align 4, !tbaa !13
  %160 = sub i32 %159, 97
  %161 = add i32 %160, 10
  br label %162

162:                                              ; preds = %158, %154
  %163 = phi i32 [ %157, %154 ], [ %161, %158 ]
  br label %164

164:                                              ; preds = %162, %143
  %165 = phi i32 [ %145, %143 ], [ %163, %162 ]
  %166 = add i32 %135, %165
  store i32 %166, ptr %13, align 4, !tbaa !13
  br label %171

167:                                              ; preds = %86
  %168 = load ptr, ptr %17, align 8, !tbaa !7
  store ptr %168, ptr %16, align 8, !tbaa !7
  %169 = load i32, ptr %10, align 4, !tbaa !13
  %170 = add i32 %169, 1
  store i32 %170, ptr %10, align 4, !tbaa !13
  br label %172

171:                                              ; preds = %164
  br label %24, !llvm.loop !134

172:                                              ; preds = %167, %34
  %173 = load i32, ptr %10, align 4, !tbaa !13
  %174 = load i32, ptr %15, align 4, !tbaa !13
  %175 = icmp sgt i32 %173, %174
  br i1 %175, label %176, label %177

176:                                              ; preds = %172
  store i32 -2, ptr %6, align 4
  store i32 1, ptr %18, align 4
  br label %181

177:                                              ; preds = %172
  %178 = load ptr, ptr %16, align 8, !tbaa !7
  %179 = load ptr, ptr %7, align 8, !tbaa !77
  store ptr %178, ptr %179, align 8, !tbaa !7
  %180 = load i32, ptr %13, align 4, !tbaa !13
  store i32 %180, ptr %6, align 4
  store i32 1, ptr %18, align 4
  br label %181

181:                                              ; preds = %177, %176, %132
  call void @llvm.lifetime.end.p0(i64 8, ptr %17) #13
  call void @llvm.lifetime.end.p0(i64 8, ptr %16) #13
  call void @llvm.lifetime.end.p0(i64 4, ptr %15) #13
  call void @llvm.lifetime.end.p0(i64 4, ptr %14) #13
  call void @llvm.lifetime.end.p0(i64 4, ptr %13) #13
  call void @llvm.lifetime.end.p0(i64 4, ptr %12) #13
  %182 = load i32, ptr %6, align 4
  ret i32 %182
}