; Function Attrs: nounwind sspstrong uwtable
define internal fastcc i32 @scan_unsigned_hexadecimal_number(ptr noundef nonnull captures(none) %0, ptr noundef %1, i32 noundef range(i32 0, 5) %2, i32 noundef range(i32 2, 9) %3, ptr noundef %4) unnamed_addr #5 {
  %6 = load ptr, ptr %0, align 8, !tbaa !67
  %7 = sub nsw i32 %3, %2
  %8 = icmp ult ptr %6, %1
  br i1 %8, label %.lr.ph, label %.critedge

.lr.ph:                                           ; preds = %5
  %9 = getelementptr inbounds nuw i8, ptr %4, i64 16
  %10 = getelementptr inbounds nuw i8, ptr %4, i64 32
  %11 = getelementptr inbounds nuw i8, ptr %4, i64 20
  %12 = getelementptr inbounds nuw i8, ptr %4, i64 88
  br label %13

13:                                               ; preds = %.lr.ph, %57
  %.068 = phi ptr [ %6, %.lr.ph ], [ %34, %57 ]
  %.05467 = phi i32 [ %3, %.lr.ph ], [ %14, %57 ]
  %.05666 = phi i32 [ 0, %.lr.ph ], [ %59, %57 ]
  %14 = add nsw i32 %.05467, -1
  %.not = icmp eq i32 %.05467, 0
  br i1 %.not, label %.critedge, label %15

15:                                               ; preds = %13
  %16 = load i32, ptr %9, align 8, !tbaa !68
  %17 = icmp eq i32 %16, 1
  br i1 %17, label %18, label %21

18:                                               ; preds = %15
  %19 = load i8, ptr %.068, align 1, !tbaa !13
  %20 = zext i8 %19 to i32
  br label %24

21:                                               ; preds = %15
  %22 = load ptr, ptr %10, align 8, !tbaa !69
  %23 = tail call i32 %22(ptr noundef %.068, ptr noundef nonnull %1, ptr noundef nonnull %4) #25
  %.pre = load i32, ptr %9, align 8, !tbaa !68
  br label %24

24:                                               ; preds = %21, %18
  %25 = phi i32 [ 1, %18 ], [ %.pre, %21 ]
  %26 = phi i32 [ %20, %18 ], [ %23, %21 ]
  %27 = load i32, ptr %11, align 4, !tbaa !45
  %28 = icmp eq i32 %25, %27
  br i1 %28, label %31, label %29

29:                                               ; preds = %24
  %30 = tail call i32 @onigenc_mbclen(ptr noundef %.068, ptr noundef nonnull %1, ptr noundef nonnull %4) #25
  br label %31

31:                                               ; preds = %24, %29
  %32 = phi i32 [ %30, %29 ], [ %25, %24 ]
  %33 = sext i32 %32 to i64
  %34 = getelementptr i8, ptr %.068, i64 %33
  %35 = load ptr, ptr %12, align 8, !tbaa !70
  %36 = tail call i32 %35(i32 noundef %26, i32 noundef 11, ptr noundef nonnull %4) #25
  %.not59 = icmp eq i32 %36, 0
  br i1 %.not59, label %.critedge, label %37

37:                                               ; preds = %31
  %38 = load ptr, ptr %12, align 8, !tbaa !70
  %39 = tail call i32 %38(i32 noundef %26, i32 noundef 4, ptr noundef nonnull %4) #25
  %.not60 = icmp eq i32 %39, 0
  br i1 %.not60, label %40, label %43

40:                                               ; preds = %37
  %41 = load ptr, ptr %12, align 8, !tbaa !70
  %42 = tail call i32 %41(i32 noundef %26, i32 noundef 10, ptr noundef nonnull %4) #25
  %.not61 = icmp eq i32 %42, 0
  %. = select i1 %.not61, i32 -87, i32 -55
  br label %43

43:                                               ; preds = %40, %37
  %.sink = phi i32 [ -48, %37 ], [ %., %40 ]
  %44 = add i32 %26, %.sink
  %45 = zext i32 %44 to i64
  %46 = sub nsw i64 2147483647, %45
  %47 = lshr i64 %46, 4
  %48 = zext i32 %.05666 to i64
  %49 = icmp samesign ult i64 %47, %48
  br i1 %49, label %.loopexit, label %50

50:                                               ; preds = %43
  %51 = shl i32 %.05666, 4
  %52 = load ptr, ptr %12, align 8, !tbaa !70
  %53 = tail call i32 %52(i32 noundef %26, i32 noundef 4, ptr noundef nonnull %4) #25
  %.not62 = icmp eq i32 %53, 0
  br i1 %.not62, label %54, label %57

54:                                               ; preds = %50
  %55 = load ptr, ptr %12, align 8, !tbaa !70
  %56 = tail call i32 %55(i32 noundef %26, i32 noundef 10, ptr noundef nonnull %4) #25
  %.not63 = icmp eq i32 %56, 0
  %.80 = select i1 %.not63, i32 -87, i32 -55
  br label %57

57:                                               ; preds = %54, %50
  %.sink79 = phi i32 [ -48, %50 ], [ %.80, %54 ]
  %58 = add i32 %26, %.sink79
  %59 = add i32 %58, %51
  %60 = icmp ult ptr %34, %1
  br i1 %60, label %13, label %.critedge, !llvm.loop !112

.critedge:                                        ; preds = %13, %57, %31, %5
  %.056.lcssa = phi i32 [ 0, %5 ], [ %.05666, %31 ], [ %59, %57 ], [ %.05666, %13 ]
  %.0.lcssa = phi ptr [ %6, %5 ], [ %.068, %31 ], [ %34, %57 ], [ %.068, %13 ]
  %.155 = phi i32 [ %3, %5 ], [ %.05467, %31 ], [ %14, %57 ], [ -1, %13 ]
  %61 = icmp sgt i32 %.155, %7
  br i1 %61, label %.loopexit, label %62

62:                                               ; preds = %.critedge
  store ptr %.0.lcssa, ptr %0, align 8, !tbaa !67
  br label %.loopexit

.loopexit:                                        ; preds = %43, %.critedge, %62
  %.053 = phi i32 [ %.056.lcssa, %62 ], [ -2, %.critedge ], [ -1, %43 ]
  ret i32 %.053
}